target datalayout = "e-m:e-p270:32:32-p271:32:32-p272:64:64-i64:64-i128:128-f80:128-n8:16:32:64-S128"
target triple = "x86_64-pc-linux-gnu"

%class.SubTasksDone = type <{ ptr, i32, [4 x i8] }>

; Function Attrs: mustprogress nounwind uwtable
define hidden void @_ZN12SubTasksDoneC2Ej(ptr noundef nonnull align 8 dereferenceable(12) %0, i32 noundef %1) unnamed_addr #1 align 2 {
  %3 = alloca ptr, align 8
  %4 = alloca i32, align 4
  %5 = alloca i32, align 4
  store ptr %0, ptr %3, align 8
  store i32 %1, ptr %4, align 4
  %6 = load ptr, ptr %3, align 8
  %7 = getelementptr inbounds %class.SubTasksDone, ptr %6, i32 0, i32 0
  store ptr null, ptr %7, align 8
  %8 = getelementptr inbounds %class.SubTasksDone, ptr %6, i32 0, i32 1
  %9 = load i32, ptr %4, align 4
  store i32 %9, ptr %8, align 8
  %10 = load i32, ptr %4, align 4
  %11 = zext i32 %10 to i64
  %12 = mul i64 %11, 1
  %13 = call noundef ptr @_Z12AllocateHeapm8MEMFLAGSN17AllocFailStrategy13AllocFailEnumE(i64 noundef %12, i8 noundef zeroext 9, i32 noundef 0)
  %14 = getelementptr inbounds %class.SubTasksDone, ptr %6, i32 0, i32 0
  store ptr %13, ptr %14, align 8
  store i32 0, ptr %5, align 4
  br label %15

15:                                               ; preds = %26, %2
  %16 = load i32, ptr %5, align 4
  %17 = getelementptr inbounds %class.SubTasksDone, ptr %6, i32 0, i32 1
  %18 = load i32, ptr %17, align 8
  %19 = icmp ult i32 %16, %18
  br i1 %19, label %20, label %29

20:                                               ; preds = %15
  %21 = getelementptr inbounds %class.SubTasksDone, ptr %6, i32 0, i32 0
  %22 = load ptr, ptr %21, align 8
  %23 = load i32, ptr %5, align 4
  %24 = zext i32 %23 to i64
  %25 = getelementptr inbounds i8, ptr %22, i64 %24
  store volatile i8 0, ptr %25, align 1
  br label %26

26:                                               ; preds = %20
  %27 = load i32, ptr %5, align 4
  %28 = add i32 %27, 1
  store i32 %28, ptr %5, align 4
  br label %15, !llvm.loop !8

29:                                               ; preds = %15
  ret void
}