; Function Attrs: mustprogress nounwind uwtable
define hidden void @_ZN12SubTasksDoneC2Ej(ptr nocapture noundef nonnull align 8 dereferenceable(12) %0, i32 noundef %1) unnamed_addr #0 align 2 {
  store ptr null, ptr %0, align 8
  %3 = getelementptr inbounds i8, ptr %0, i64 8
  store i32 %1, ptr %3, align 8
  %4 = zext i32 %1 to i64
  %5 = tail call noundef ptr @_Z12AllocateHeapm8MEMFLAGSN17AllocFailStrategy13AllocFailEnumE(i64 noundef %4, i8 noundef zeroext 9, i32 noundef 0) #4
  store ptr %5, ptr %0, align 8
  %6 = load i32, ptr %3, align 8
  %.not = icmp eq i32 %6, 0
  br i1 %.not, label %._crit_edge, label %.lr.ph

.lr.ph:                                           ; preds = %2, %.lr.ph
  %indvars.iv = phi i64 [ %indvars.iv.next, %.lr.ph ], [ 0, %2 ]
  %7 = load ptr, ptr %0, align 8
  %8 = getelementptr inbounds i8, ptr %7, i64 %indvars.iv
  store volatile i8 0, ptr %8, align 1
  %indvars.iv.next = add nuw nsw i64 %indvars.iv, 1
  %9 = load i32, ptr %3, align 8
  %10 = zext i32 %9 to i64
  %11 = icmp ult i64 %indvars.iv.next, %10
  br i1 %11, label %.lr.ph, label %._crit_edge, !llvm.loop !8

._crit_edge:                                      ; preds = %.lr.ph, %2
  ret void
}